target datalayout = "e-m:e-p270:32:32-p271:32:32-p272:64:64-i64:64-i128:128-f80:128-n8:16:32:64-S128"
target triple = "x86_64-pc-linux-gnu"

%struct.RIPEMD160state_st = type { i32, i32, i32, i32, i32, i32, i32, [16 x i32], i32 }

; Function Attrs: nounwind uwtable
define i32 @RIPEMD160_Final(ptr noundef %0, ptr noundef %1) #0 {
  %3 = alloca ptr, align 8
  %4 = alloca ptr, align 8
  %5 = alloca ptr, align 8
  %6 = alloca i64, align 8
  %7 = alloca i64, align 8
  store ptr %0, ptr %3, align 8, !tbaa !11
  store ptr %1, ptr %4, align 8, !tbaa !3
  call void @llvm.lifetime.start.p0(i64 8, ptr %5) #5
  %8 = load ptr, ptr %4, align 8, !tbaa !3
  %9 = getelementptr inbounds nuw %struct.RIPEMD160state_st, ptr %8, i32 0, i32 7
  %10 = getelementptr inbounds [16 x i32], ptr %9, i64 0, i64 0
  store ptr %10, ptr %5, align 8, !tbaa !11
  call void @llvm.lifetime.start.p0(i64 8, ptr %6) #5
  %11 = load ptr, ptr %4, align 8, !tbaa !3
  %12 = getelementptr inbounds nuw %struct.RIPEMD160state_st, ptr %11, i32 0, i32 8
  %13 = load i32, ptr %12, align 4, !tbaa !18
  %14 = zext i32 %13 to i64
  store i64 %14, ptr %6, align 8, !tbaa !9
  %15 = load ptr, ptr %5, align 8, !tbaa !11
  %16 = load i64, ptr %6, align 8, !tbaa !9
  %17 = getelementptr inbounds nuw i8, ptr %15, i64 %16
  store i8 -128, ptr %17, align 1, !tbaa !24
  %18 = load i64, ptr %6, align 8, !tbaa !9
  %19 = add i64 %18, 1
  store i64 %19, ptr %6, align 8, !tbaa !9
  %20 = load i64, ptr %6, align 8, !tbaa !9
  %21 = icmp ugt i64 %20, 56
  br i1 %21, label %22, label %30

22:                                               ; preds = %2
  %23 = load ptr, ptr %5, align 8, !tbaa !11
  %24 = load i64, ptr %6, align 8, !tbaa !9
  %25 = getelementptr inbounds nuw i8, ptr %23, i64 %24
  %26 = load i64, ptr %6, align 8, !tbaa !9
  %27 = sub i64 64, %26
  call void @llvm.memset.p0.i64(ptr align 1 %25, i8 0, i64 %27, i1 false)
  store i64 0, ptr %6, align 8, !tbaa !9
  %28 = load ptr, ptr %4, align 8, !tbaa !3
  %29 = load ptr, ptr %5, align 8, !tbaa !11
  call void @ripemd160_block_data_order(ptr noundef %28, ptr noundef %29, i64 noundef 1)
  br label %30

30:                                               ; preds = %22, %2
  %31 = load ptr, ptr %5, align 8, !tbaa !11
  %32 = load i64, ptr %6, align 8, !tbaa !9
  %33 = getelementptr inbounds nuw i8, ptr %31, i64 %32
  %34 = load i64, ptr %6, align 8, !tbaa !9
  %35 = sub i64 56, %34
  call void @llvm.memset.p0.i64(ptr align 1 %33, i8 0, i64 %35, i1 false)
  %36 = load ptr, ptr %5, align 8, !tbaa !11
  %37 = getelementptr inbounds i8, ptr %36, i64 56
  store ptr %37, ptr %5, align 8, !tbaa !11
  %38 = load ptr, ptr %4, align 8, !tbaa !3
  %39 = getelementptr inbounds nuw %struct.RIPEMD160state_st, ptr %38, i32 0, i32 5
  %40 = load i32, ptr %39, align 4, !tbaa !13
  %41 = and i32 %40, 255
  %42 = trunc i32 %41 to i8
  %43 = load ptr, ptr %5, align 8, !tbaa !11
  %44 = getelementptr inbounds nuw i8, ptr %43, i32 1
  store ptr %44, ptr %5, align 8, !tbaa !11
  store i8 %42, ptr %43, align 1, !tbaa !24
  %45 = load ptr, ptr %4, align 8, !tbaa !3
  %46 = getelementptr inbounds nuw %struct.RIPEMD160state_st, ptr %45, i32 0, i32 5
  %47 = load i32, ptr %46, align 4, !tbaa !13
  %48 = lshr i32 %47, 8
  %49 = and i32 %48, 255
  %50 = trunc i32 %49 to i8
  %51 = load ptr, ptr %5, align 8, !tbaa !11
  %52 = getelementptr inbounds nuw i8, ptr %51, i32 1
  store ptr %52, ptr %5, align 8, !tbaa !11
  store i8 %50, ptr %51, align 1, !tbaa !24
  %53 = load ptr, ptr %4, align 8, !tbaa !3
  %54 = getelementptr inbounds nuw %struct.RIPEMD160state_st, ptr %53, i32 0, i32 5
  %55 = load i32, ptr %54, align 4, !tbaa !13
  %56 = lshr i32 %55, 16
  %57 = and i32 %56, 255
  %58 = trunc i32 %57 to i8
  %59 = load ptr, ptr %5, align 8, !tbaa !11
  %60 = getelementptr inbounds nuw i8, ptr %59, i32 1
  store ptr %60, ptr %5, align 8, !tbaa !11
  store i8 %58, ptr %59, align 1, !tbaa !24
  %61 = load ptr, ptr %4, align 8, !tbaa !3
  %62 = getelementptr inbounds nuw %struct.RIPEMD160state_st, ptr %61, i32 0, i32 5
  %63 = load i32, ptr %62, align 4, !tbaa !13
  %64 = lshr i32 %63, 24
  %65 = and i32 %64, 255
  %66 = trunc i32 %65 to i8
  %67 = load ptr, ptr %5, align 8, !tbaa !11
  %68 = getelementptr inbounds nuw i8, ptr %67, i32 1
  store ptr %68, ptr %5, align 8, !tbaa !11
  store i8 %66, ptr %67, align 1, !tbaa !24
  %69 = load ptr, ptr %4, align 8, !tbaa !3
  %70 = getelementptr inbounds nuw %struct.RIPEMD160state_st, ptr %69, i32 0, i32 6
  %71 = load i32, ptr %70, align 4, !tbaa !17
  %72 = and i32 %71, 255
  %73 = trunc i32 %72 to i8
  %74 = load ptr, ptr %5, align 8, !tbaa !11
  %75 = getelementptr inbounds nuw i8, ptr %74, i32 1
  store ptr %75, ptr %5, align 8, !tbaa !11
  store i8 %73, ptr %74, align 1, !tbaa !24
  %76 = load ptr, ptr %4, align 8, !tbaa !3
  %77 = getelementptr inbounds nuw %struct.RIPEMD160state_st, ptr %76, i32 0, i32 6
  %78 = load i32, ptr %77, align 4, !tbaa !17
  %79 = lshr i32 %78, 8
  %80 = and i32 %79, 255
  %81 = trunc i32 %80 to i8
  %82 = load ptr, ptr %5, align 8, !tbaa !11
  %83 = getelementptr inbounds nuw i8, ptr %82, i32 1
  store ptr %83, ptr %5, align 8, !tbaa !11
  store i8 %81, ptr %82, align 1, !tbaa !24
  %84 = load ptr, ptr %4, align 8, !tbaa !3
  %85 = getelementptr inbounds nuw %struct.RIPEMD160state_st, ptr %84, i32 0, i32 6
  %86 = load i32, ptr %85, align 4, !tbaa !17
  %87 = lshr i32 %86, 16
  %88 = and i32 %87, 255
  %89 = trunc i32 %88 to i8
  %90 = load ptr, ptr %5, align 8, !tbaa !11
  %91 = getelementptr inbounds nuw i8, ptr %90, i32 1
  store ptr %91, ptr %5, align 8, !tbaa !11
  store i8 %89, ptr %90, align 1, !tbaa !24
  %92 = load ptr, ptr %4, align 8, !tbaa !3
  %93 = getelementptr inbounds nuw %struct.RIPEMD160state_st, ptr %92, i32 0, i32 6
  %94 = load i32, ptr %93, align 4, !tbaa !17
  %95 = lshr i32 %94, 24
  %96 = and i32 %95, 255
  %97 = trunc i32 %96 to i8
  %98 = load ptr, ptr %5, align 8, !tbaa !11
  %99 = getelementptr inbounds nuw i8, ptr %98, i32 1
  store ptr %99, ptr %5, align 8, !tbaa !11
  store i8 %97, ptr %98, align 1, !tbaa !24
  %100 = load ptr, ptr %5, align 8, !tbaa !11
  %101 = getelementptr inbounds i8, ptr %100, i64 -64
  store ptr %101, ptr %5, align 8, !tbaa !11
  %102 = load ptr, ptr %4, align 8, !tbaa !3
  %103 = load ptr, ptr %5, align 8, !tbaa !11
  call void @ripemd160_block_data_order(ptr noundef %102, ptr noundef %103, i64 noundef 1)
  %104 = load ptr, ptr %4, align 8, !tbaa !3
  %105 = getelementptr inbounds nuw %struct.RIPEMD160state_st, ptr %104, i32 0, i32 8
  store i32 0, ptr %105, align 4, !tbaa !18
  %106 = load ptr, ptr %5, align 8, !tbaa !11
  call void @OPENSSL_cleanse(ptr noundef %106, i64 noundef 64)
  br label %107

107:                                              ; preds = %30
  call void @llvm.lifetime.start.p0(i64 8, ptr %7) #5
  %108 = load ptr, ptr %4, align 8, !tbaa !3
  %109 = getelementptr inbounds nuw %struct.RIPEMD160state_st, ptr %108, i32 0, i32 0
  %110 = load i32, ptr %109, align 4, !tbaa !19
  %111 = zext i32 %110 to i64
  store i64 %111, ptr %7, align 8, !tbaa !9
  %112 = load i64, ptr %7, align 8, !tbaa !9
  %113 = and i64 %112, 255
  %114 = trunc i64 %113 to i8
  %115 = load ptr, ptr %3, align 8, !tbaa !11
  %116 = getelementptr inbounds nuw i8, ptr %115, i32 1
  store ptr %116, ptr %3, align 8, !tbaa !11
  store i8 %114, ptr %115, align 1, !tbaa !24
  %117 = load i64, ptr %7, align 8, !tbaa !9
  %118 = lshr i64 %117, 8
  %119 = and i64 %118, 255
  %120 = trunc i64 %119 to i8
  %121 = load ptr, ptr %3, align 8, !tbaa !11
  %122 = getelementptr inbounds nuw i8, ptr %121, i32 1
  store ptr %122, ptr %3, align 8, !tbaa !11
  store i8 %120, ptr %121, align 1, !tbaa !24
  %123 = load i64, ptr %7, align 8, !tbaa !9
  %124 = lshr i64 %123, 16
  %125 = and i64 %124, 255
  %126 = trunc i64 %125 to i8
  %127 = load ptr, ptr %3, align 8, !tbaa !11
  %128 = getelementptr inbounds nuw i8, ptr %127, i32 1
  store ptr %128, ptr %3, align 8, !tbaa !11
  store i8 %126, ptr %127, align 1, !tbaa !24
  %129 = load i64, ptr %7, align 8, !tbaa !9
  %130 = lshr i64 %129, 24
  %131 = and i64 %130, 255
  %132 = trunc i64 %131 to i8
  %133 = load ptr, ptr %3, align 8, !tbaa !11
  %134 = getelementptr inbounds nuw i8, ptr %133, i32 1
  store ptr %134, ptr %3, align 8, !tbaa !11
  store i8 %132, ptr %133, align 1, !tbaa !24
  %135 = load ptr, ptr %4, align 8, !tbaa !3
  %136 = getelementptr inbounds nuw %struct.RIPEMD160state_st, ptr %135, i32 0, i32 1
  %137 = load i32, ptr %136, align 4, !tbaa !20
  %138 = zext i32 %137 to i64
  store i64 %138, ptr %7, align 8, !tbaa !9
  %139 = load i64, ptr %7, align 8, !tbaa !9
  %140 = and i64 %139, 255
  %141 = trunc i64 %140 to i8
  %142 = load ptr, ptr %3, align 8, !tbaa !11
  %143 = getelementptr inbounds nuw i8, ptr %142, i32 1
  store ptr %143, ptr %3, align 8, !tbaa !11
  store i8 %141, ptr %142, align 1, !tbaa !24
  %144 = load i64, ptr %7, align 8, !tbaa !9
  %145 = lshr i64 %144, 8
  %146 = and i64 %145, 255
  %147 = trunc i64 %146 to i8
  %148 = load ptr, ptr %3, align 8, !tbaa !11
  %149 = getelementptr inbounds nuw i8, ptr %148, i32 1
  store ptr %149, ptr %3, align 8, !tbaa !11
  store i8 %147, ptr %148, align 1, !tbaa !24
  %150 = load i64, ptr %7, align 8, !tbaa !9
  %151 = lshr i64 %150, 16
  %152 = and i64 %151, 255
  %153 = trunc i64 %152 to i8
  %154 = load ptr, ptr %3, align 8, !tbaa !11
  %155 = getelementptr inbounds nuw i8, ptr %154, i32 1
  store ptr %155, ptr %3, align 8, !tbaa !11
  store i8 %153, ptr %154, align 1, !tbaa !24
  %156 = load i64, ptr %7, align 8, !tbaa !9
  %157 = lshr i64 %156, 24
  %158 = and i64 %157, 255
  %159 = trunc i64 %158 to i8
  %160 = load ptr, ptr %3, align 8, !tbaa !11
  %161 = getelementptr inbounds nuw i8, ptr %160, i32 1
  store ptr %161, ptr %3, align 8, !tbaa !11
  store i8 %159, ptr %160, align 1, !tbaa !24
  %162 = load ptr, ptr %4, align 8, !tbaa !3
  %163 = getelementptr inbounds nuw %struct.RIPEMD160state_st, ptr %162, i32 0, i32 2
  %164 = load i32, ptr %163, align 4, !tbaa !21
  %165 = zext i32 %164 to i64
  store i64 %165, ptr %7, align 8, !tbaa !9
  %166 = load i64, ptr %7, align 8, !tbaa !9
  %167 = and i64 %166, 255
  %168 = trunc i64 %167 to i8
  %169 = load ptr, ptr %3, align 8, !tbaa !11
  %170 = getelementptr inbounds nuw i8, ptr %169, i32 1
  store ptr %170, ptr %3, align 8, !tbaa !11
  store i8 %168, ptr %169, align 1, !tbaa !24
  %171 = load i64, ptr %7, align 8, !tbaa !9
  %172 = lshr i64 %171, 8
  %173 = and i64 %172, 255
  %174 = trunc i64 %173 to i8
  %175 = load ptr, ptr %3, align 8, !tbaa !11
  %176 = getelementptr inbounds nuw i8, ptr %175, i32 1
  store ptr %176, ptr %3, align 8, !tbaa !11
  store i8 %174, ptr %175, align 1, !tbaa !24
  %177 = load i64, ptr %7, align 8, !tbaa !9
  %178 = lshr i64 %177, 16
  %179 = and i64 %178, 255
  %180 = trunc i64 %179 to i8
  %181 = load ptr, ptr %3, align 8, !tbaa !11
  %182 = getelementptr inbounds nuw i8, ptr %181, i32 1
  store ptr %182, ptr %3, align 8, !tbaa !11
  store i8 %180, ptr %181, align 1, !tbaa !24
  %183 = load i64, ptr %7, align 8, !tbaa !9
  %184 = lshr i64 %183, 24
  %185 = and i64 %184, 255
  %186 = trunc i64 %185 to i8
  %187 = load ptr, ptr %3, align 8, !tbaa !11
  %188 = getelementptr inbounds nuw i8, ptr %187, i32 1
  store ptr %188, ptr %3, align 8, !tbaa !11
  store i8 %186, ptr %187, align 1, !tbaa !24
  %189 = load ptr, ptr %4, align 8, !tbaa !3
  %190 = getelementptr inbounds nuw %struct.RIPEMD160state_st, ptr %189, i32 0, i32 3
  %191 = load i32, ptr %190, align 4, !tbaa !22
  %192 = zext i32 %191 to i64
  store i64 %192, ptr %7, align 8, !tbaa !9
  %193 = load i64, ptr %7, align 8, !tbaa !9
  %194 = and i64 %193, 255
  %195 = trunc i64 %194 to i8
  %196 = load ptr, ptr %3, align 8, !tbaa !11
  %197 = getelementptr inbounds nuw i8, ptr %196, i32 1
  store ptr %197, ptr %3, align 8, !tbaa !11
  store i8 %195, ptr %196, align 1, !tbaa !24
  %198 = load i64, ptr %7, align 8, !tbaa !9
  %199 = lshr i64 %198, 8
  %200 = and i64 %199, 255
  %201 = trunc i64 %200 to i8
  %202 = load ptr, ptr %3, align 8, !tbaa !11
  %203 = getelementptr inbounds nuw i8, ptr %202, i32 1
  store ptr %203, ptr %3, align 8, !tbaa !11
  store i8 %201, ptr %202, align 1, !tbaa !24
  %204 = load i64, ptr %7, align 8, !tbaa !9
  %205 = lshr i64 %204, 16
  %206 = and i64 %205, 255
  %207 = trunc i64 %206 to i8
  %208 = load ptr, ptr %3, align 8, !tbaa !11
  %209 = getelementptr inbounds nuw i8, ptr %208, i32 1
  store ptr %209, ptr %3, align 8, !tbaa !11
  store i8 %207, ptr %208, align 1, !tbaa !24
  %210 = load i64, ptr %7, align 8, !tbaa !9
  %211 = lshr i64 %210, 24
  %212 = and i64 %211, 255
  %213 = trunc i64 %212 to i8
  %214 = load ptr, ptr %3, align 8, !tbaa !11
  %215 = getelementptr inbounds nuw i8, ptr %214, i32 1
  store ptr %215, ptr %3, align 8, !tbaa !11
  store i8 %213, ptr %214, align 1, !tbaa !24
  %216 = load ptr, ptr %4, align 8, !tbaa !3
  %217 = getelementptr inbounds nuw %struct.RIPEMD160state_st, ptr %216, i32 0, i32 4
  %218 = load i32, ptr %217, align 4, !tbaa !23
  %219 = zext i32 %218 to i64
  store i64 %219, ptr %7, align 8, !tbaa !9
  %220 = load i64, ptr %7, align 8, !tbaa !9
  %221 = and i64 %220, 255
  %222 = trunc i64 %221 to i8
  %223 = load ptr, ptr %3, align 8, !tbaa !11
  %224 = getelementptr inbounds nuw i8, ptr %223, i32 1
  store ptr %224, ptr %3, align 8, !tbaa !11
  store i8 %222, ptr %223, align 1, !tbaa !24
  %225 = load i64, ptr %7, align 8, !tbaa !9
  %226 = lshr i64 %225, 8
  %227 = and i64 %226, 255
  %228 = trunc i64 %227 to i8
  %229 = load ptr, ptr %3, align 8, !tbaa !11
  %230 = getelementptr inbounds nuw i8, ptr %229, i32 1
  store ptr %230, ptr %3, align 8, !tbaa !11
  store i8 %228, ptr %229, align 1, !tbaa !24
  %231 = load i64, ptr %7, align 8, !tbaa !9
  %232 = lshr i64 %231, 16
  %233 = and i64 %232, 255
  %234 = trunc i64 %233 to i8
  %235 = load ptr, ptr %3, align 8, !tbaa !11
  %236 = getelementptr inbounds nuw i8, ptr %235, i32 1
  store ptr %236, ptr %3, align 8, !tbaa !11
  store i8 %234, ptr %235, align 1, !tbaa !24
  %237 = load i64, ptr %7, align 8, !tbaa !9
  %238 = lshr i64 %237, 24
  %239 = and i64 %238, 255
  %240 = trunc i64 %239 to i8
  %241 = load ptr, ptr %3, align 8, !tbaa !11
  %242 = getelementptr inbounds nuw i8, ptr %241, i32 1
  store ptr %242, ptr %3, align 8, !tbaa !11
  store i8 %240, ptr %241, align 1, !tbaa !24
  call void @llvm.lifetime.end.p0(i64 8, ptr %7) #5
  br label %243

243:                                              ; preds = %107
  br label %244

244:                                              ; preds = %243
  call void @llvm.lifetime.end.p0(i64 8, ptr %6) #5
  call void @llvm.lifetime.end.p0(i64 8, ptr %5) #5
  ret i32 1
}